; ModuleID = 'source-C-CXX/10/868.c'
source_filename = "source-C-CXX/10/868.c"
target datalayout = "e-m:e-p270:32:32-p271:32:32-p272:64:64-i64:64-f80:128-n8:16:32:64-S128"
target triple = "x86_64-pc-linux-gnu"

@.str = private unnamed_addr constant [9 x i8] c"%d %d %d\00", align 1
@.str.1 = private unnamed_addr constant [3 x i8] c"%d\00", align 1

; Function Attrs: mustprogress nofree norecurse nosync nounwind readnone sspstrong uwtable willreturn
define dso_local i32 @leap(i32 %0) local_unnamed_addr #0 {
  %2 = and i32 %0, 3
  %3 = icmp ne i32 %2, 0
  %4 = srem i32 %0, 100
  %5 = icmp eq i32 %4, 0
  %6 = or i1 %3, %5
  br i1 %6, label %7, label %11

7:                                                ; preds = %1
  %8 = srem i32 %0, 400
  %9 = icmp eq i32 %8, 0
  %10 = zext i1 %9 to i32
  br label %11

11:                                               ; preds = %7, %1
  %12 = phi i32 [ 1, %1 ], [ %10, %7 ]
  ret i32 %12
}

; Function Attrs: nofree nounwind sspstrong uwtable
define dso_local void @main() local_unnamed_addr #1 {
  %1 = alloca i32, align 4
  %2 = alloca i32, align 4
  %3 = alloca i32, align 4
  %4 = bitcast i32* %1 to i8*
  call void @llvm.lifetime.start.p0i8(i64 4, i8* nonnull %4) #4
  %5 = bitcast i32* %2 to i8*
  call void @llvm.lifetime.start.p0i8(i64 4, i8* nonnull %5) #4
  %6 = bitcast i32* %3 to i8*
  call void @llvm.lifetime.start.p0i8(i64 4, i8* nonnull %6) #4
  %7 = call i32 (i8*, ...) @__isoc99_scanf(i8* getelementptr inbounds ([9 x i8], [9 x i8]* @.str, i64 0, i64 0), i32* nonnull %1, i32* nonnull %2, i32* nonnull %3)
  %8 = load i32, i32* %1, align 4, !tbaa !5
  %9 = and i32 %8, 3
  %10 = icmp eq i32 %9, 0
  %11 = srem i32 %8, 100
  %12 = icmp ne i32 %11, 0
  %13 = and i1 %10, %12
  %14 = srem i32 %8, 400
  %15 = icmp eq i32 %14, 0
  %16 = select i1 %13, i1 true, i1 %15
  %17 = load i32, i32* %2, align 4, !tbaa !5
  %18 = icmp eq i32 %17, 1
  %19 = load i32, i32* %3, align 4
  %20 = select i1 %18, i32 %19, i32 undef
  %21 = icmp eq i32 %17, 2
  %22 = add nsw i32 %19, 31
  %23 = select i1 %21, i32 %22, i32 %20
  %24 = icmp eq i32 %17, 3
  %25 = select i1 %16, i32 60, i32 59
  %26 = select i1 %16, i32 91, i32 90
  %27 = select i1 %16, i32 121, i32 120
  %28 = select i1 %16, i32 152, i32 151
  %29 = select i1 %16, i32 182, i32 181
  %30 = select i1 %16, i32 213, i32 212
  %31 = select i1 %16, i32 244, i32 243
  %32 = select i1 %16, i32 274, i32 273
  %33 = select i1 %16, i32 305, i32 304
  %34 = select i1 %16, i32 335, i32 334
  %35 = add nsw i32 %19, %25
  %36 = select i1 %24, i32 %35, i32 %23
  %37 = icmp eq i32 %17, 4
  %38 = add nsw i32 %19, %26
  %39 = select i1 %37, i32 %38, i32 %36
  %40 = icmp eq i32 %17, 5
  %41 = add nsw i32 %19, %27
  %42 = select i1 %40, i32 %41, i32 %39
  %43 = icmp eq i32 %17, 6
  %44 = add nsw i32 %19, %28
  %45 = select i1 %43, i32 %44, i32 %42
  %46 = icmp eq i32 %17, 7
  %47 = add nsw i32 %19, %29
  %48 = select i1 %46, i32 %47, i32 %45
  %49 = icmp eq i32 %17, 8
  %50 = add nsw i32 %19, %30
  %51 = select i1 %49, i32 %50, i32 %48
  %52 = icmp eq i32 %17, 9
  %53 = add nsw i32 %19, %31
  %54 = select i1 %52, i32 %53, i32 %51
  %55 = icmp eq i32 %17, 10
  %56 = add nsw i32 %19, %32
  %57 = select i1 %55, i32 %56, i32 %54
  %58 = icmp eq i32 %17, 11
  %59 = add nsw i32 %19, %33
  %60 = select i1 %58, i32 %59, i32 %57
  %61 = icmp eq i32 %17, 12
  %62 = add nsw i32 %19, %34
  %63 = select i1 %61, i32 %62, i32 %60
  %64 = call i32 (i8*, ...) @printf(i8* nonnull dereferenceable(1) getelementptr inbounds ([3 x i8], [3 x i8]* @.str.1, i64 0, i64 0), i32 %63)
  call void @llvm.lifetime.end.p0i8(i64 4, i8* nonnull %6) #4
  call void @llvm.lifetime.end.p0i8(i64 4, i8* nonnull %5) #4
  call void @llvm.lifetime.end.p0i8(i64 4, i8* nonnull %4) #4
  ret void
}

; Function Attrs: argmemonly mustprogress nofree nosync nounwind willreturn
declare void @llvm.lifetime.start.p0i8(i64 immarg, i8* nocapture) #2

; Function Attrs: nofree nounwind
declare noundef i32 @__isoc99_scanf(i8* nocapture noundef readonly, ...) local_unnamed_addr #3

; Function Attrs: nofree nounwind
declare noundef i32 @printf(i8* nocapture noundef readonly, ...) local_unnamed_addr #3

; Function Attrs: argmemonly mustprogress nofree nosync nounwind willreturn
declare void @llvm.lifetime.end.p0i8(i64 immarg, i8* nocapture) #2


!llvm.module.flags = !{!0, !1, !2, !3}
!llvm.ident = !{!4}

!0 = !{i32 1, !"wchar_size", i32 4}
!1 = !{i32 7, !"PIC Level", i32 2}
!2 = !{i32 7, !"PIE Level", i32 2}
!3 = !{i32 7, !"uwtable", i32 1}
!4 = !{!"clang version 13.0.0"}
!5 = !{!6, !6, i64 0}
!6 = !{!"int", !7, i64 0}
!7 = !{!"omnipotent char", !8, i64 0}
!8 = !{!"Simple C/C++ TBAA"}
